target datalayout = "e-m:e-p270:32:32-p271:32:32-p272:64:64-i64:64-i128:128-f80:128-n8:16:32:64-S128"
target triple = "x86_64-unknown-linux-gnu"

%struct.grpc_channel_filter = type { ptr, ptr, ptr, ptr, i64, ptr, ptr, ptr, i64, ptr, ptr, ptr, ptr, ptr }

; Function Attrs: mustprogress nounwind uwtable
define noundef i64 @_Z23grpc_channel_stack_sizePPK19grpc_channel_filterm(ptr noundef %filters, i64 noundef %filter_count) #4 {
entry:
  %filters.addr = alloca ptr, align 8
  %filter_count.addr = alloca i64, align 8
  %size = alloca i64, align 8
  %i = alloca i64, align 8
  store ptr %filters, ptr %filters.addr, align 8
  store i64 %filter_count, ptr %filter_count.addr, align 8
  %0 = load i64, ptr %filter_count.addr, align 8
  %mul = mul i64 %0, 16
  %add = add i64 %mul, 16
  %sub = sub i64 %add, 1
  %and = and i64 %sub, 4294967280
  %add1 = add i64 112, %and
  store i64 %add1, ptr %size, align 8
  br label %do.body

do.body:                                          ; preds = %entry
  br label %do.end

do.end:                                           ; preds = %do.body
  store i64 0, ptr %i, align 8
  br label %for.cond

for.cond:                                         ; preds = %for.inc, %do.end
  %1 = load i64, ptr %i, align 8
  %2 = load i64, ptr %filter_count.addr, align 8
  %cmp = icmp ult i64 %1, %2
  br i1 %cmp, label %for.body, label %for.end

for.body:                                         ; preds = %for.cond
  %3 = load ptr, ptr %filters.addr, align 8
  %4 = load i64, ptr %i, align 8
  %arrayidx = getelementptr inbounds ptr, ptr %3, i64 %4
  %5 = load ptr, ptr %arrayidx, align 8
  %sizeof_channel_data = getelementptr inbounds %struct.grpc_channel_filter, ptr %5, i32 0, i32 8
  %6 = load i64, ptr %sizeof_channel_data, align 8
  %add2 = add i64 %6, 16
  %sub3 = sub i64 %add2, 1
  %and4 = and i64 %sub3, 4294967280
  %7 = load i64, ptr %size, align 8
  %add5 = add i64 %7, %and4
  store i64 %add5, ptr %size, align 8
  br label %for.inc

for.inc:                                          ; preds = %for.body
  %8 = load i64, ptr %i, align 8
  %inc = add i64 %8, 1
  store i64 %inc, ptr %i, align 8
  br label %for.cond, !llvm.loop !4

for.end:                                          ; preds = %for.cond
  %9 = load i64, ptr %size, align 8
  ret i64 %9
}