; Function Attrs: mustprogress nofree norecurse nosync nounwind willreturn memory(read, inaccessiblemem: none) uwtable
define noundef i64 @_Z23grpc_channel_stack_sizePPK19grpc_channel_filterm(ptr nocapture noundef readonly %filters, i64 noundef %filter_count) local_unnamed_addr #3 {
entry:
  %mul = shl i64 %filter_count, 4
  %and = and i64 %mul, 4294967280
  %add1 = add nuw nsw i64 %and, 112
  %cmp5.not = icmp eq i64 %filter_count, 0
  br i1 %cmp5.not, label %for.end, label %for.body

for.body:                                         ; preds = %entry, %for.body
  %i.07 = phi i64 [ %inc, %for.body ], [ 0, %entry ]
  %size.06 = phi i64 [ %add5, %for.body ], [ %add1, %entry ]
  %arrayidx = getelementptr inbounds ptr, ptr %filters, i64 %i.07
  %0 = load ptr, ptr %arrayidx, align 8
  %sizeof_channel_data = getelementptr inbounds i8, ptr %0, i64 64
  %1 = load i64, ptr %sizeof_channel_data, align 8
  %sub3 = add i64 %1, 15
  %and4 = and i64 %sub3, 4294967280
  %add5 = add i64 %and4, %size.06
  %inc = add nuw i64 %i.07, 1
  %exitcond.not = icmp eq i64 %inc, %filter_count
  br i1 %exitcond.not, label %for.end, label %for.body, !llvm.loop !4

for.end:                                          ; preds = %for.body, %entry
  %size.0.lcssa = phi i64 [ %add1, %entry ], [ %add5, %for.body ]
  ret i64 %size.0.lcssa
}